; Function Attrs: mustprogress nofree nounwind willreturn uwtable
define range(i32 -32, 1) i32 @pmix_bfrops_base_copy_netstats(ptr noundef writeonly captures(none) %0, ptr noundef readonly captures(none) %1, i16 noundef zeroext %2) local_unnamed_addr #4 {
  %calloc.i.i = tail call dereferenceable_or_null(56) ptr @calloc(i64 1, i64 56)
  %4 = icmp eq ptr %calloc.i.i, null
  br i1 %4, label %pmix_bfrops_base_tma_copy_netstats.exit, label %5, !prof !43

5:                                                ; preds = %3
  store ptr %calloc.i.i, ptr %0, align 8, !tbaa !15
  %6 = load ptr, ptr %1, align 8, !tbaa !199
  %.not.i.i = icmp eq ptr %6, null
  br i1 %.not.i.i, label %pmix_bfrops_base_tma_populate_netstats.exit.i, label %7

7:                                                ; preds = %5
  %8 = tail call noalias ptr @strdup(ptr noundef nonnull readonly %6) #23
  store ptr %8, ptr %calloc.i.i, align 8, !tbaa !199
  br label %pmix_bfrops_base_tma_populate_netstats.exit.i

pmix_bfrops_base_tma_populate_netstats.exit.i:    ; preds = %7, %5
  %9 = getelementptr inbounds nuw i8, ptr %1, i64 8
  %10 = load i64, ptr %9, align 8, !tbaa !201
  %11 = getelementptr inbounds nuw i8, ptr %calloc.i.i, i64 8
  store i64 %10, ptr %11, align 8, !tbaa !201
  %12 = getelementptr inbounds nuw i8, ptr %1, i64 16
  %13 = load i64, ptr %12, align 8, !tbaa !202
  %14 = getelementptr inbounds nuw i8, ptr %calloc.i.i, i64 16
  store i64 %13, ptr %14, align 8, !tbaa !202
  %15 = getelementptr inbounds nuw i8, ptr %1, i64 24
  %16 = load i64, ptr %15, align 8, !tbaa !203
  %17 = getelementptr inbounds nuw i8, ptr %calloc.i.i, i64 24
  store i64 %16, ptr %17, align 8, !tbaa !203
  %18 = getelementptr inbounds nuw i8, ptr %1, i64 32
  %19 = load i64, ptr %18, align 8, !tbaa !204
  %20 = getelementptr inbounds nuw i8, ptr %calloc.i.i, i64 32
  store i64 %19, ptr %20, align 8, !tbaa !204
  %21 = getelementptr inbounds nuw i8, ptr %1, i64 40
  %22 = load i64, ptr %21, align 8, !tbaa !205
  %23 = getelementptr inbounds nuw i8, ptr %calloc.i.i, i64 40
  store i64 %22, ptr %23, align 8, !tbaa !205
  %24 = getelementptr inbounds nuw i8, ptr %1, i64 48
  %25 = load i64, ptr %24, align 8, !tbaa !206
  %26 = getelementptr inbounds nuw i8, ptr %calloc.i.i, i64 48
  store i64 %25, ptr %26, align 8, !tbaa !206
  br label %pmix_bfrops_base_tma_copy_netstats.exit

pmix_bfrops_base_tma_copy_netstats.exit:          ; preds = %3, %pmix_bfrops_base_tma_populate_netstats.exit.i
  %.0.i = phi i32 [ 0, %pmix_bfrops_base_tma_populate_netstats.exit.i ], [ -32, %3 ]
  ret i32 %.0.i
}